target datalayout = "e-m:e-p270:32:32-p271:32:32-p272:64:64-i64:64-i128:128-f80:128-n8:16:32:64-S128"
target triple = "x86_64-unknown-linux-gnu"

%struct.QIOChannelTLS = type { %struct.QIOChannel, ptr, ptr, i32, i32 }
%struct.QIOChannel = type { %struct.Object, i32, ptr, ptr, ptr, ptr, ptr, i8 }
%struct.Object = type { ptr, ptr, ptr, i32, ptr }
%struct.iovec = type { ptr, i64 }

@.str = private unnamed_addr constant [16 x i8] c"qio-channel-tls\00", align 1
@.str.1 = private unnamed_addr constant [103 x i8] c"/home/dtcxzyw/WorkSpace/Projects/compilers/llvm-opt-benchmark/bench/qemu/qemu/include/io/channel-tls.h\00", align 1
@__func__.QIO_CHANNEL_TLS = private unnamed_addr constant [16 x i8] c"QIO_CHANNEL_TLS\00", align 1
@.str.20 = private unnamed_addr constant [25 x i8] c"../qemu/io/channel-tls.c\00", align 1
@__func__.qio_channel_tls_writev = private unnamed_addr constant [23 x i8] c"qio_channel_tls_writev\00", align 1
@.str.21 = private unnamed_addr constant [28 x i8] c"Cannot write to TLS channel\00", align 1

; Function Attrs: nounwind sspstrong uwtable
define internal ptr @QIO_CHANNEL_TLS(ptr noundef %obj) #0 {
entry:
  %obj.addr = alloca ptr, align 8
  store ptr %obj, ptr %obj.addr, align 8
  %0 = load ptr, ptr %obj.addr, align 8
  %call = call ptr @object_dynamic_cast_assert(ptr noundef %0, ptr noundef @.str, ptr noundef @.str.1, i32 noundef 30, ptr noundef @__func__.QIO_CHANNEL_TLS)
  ret ptr %call
}

; Function Attrs: nounwind sspstrong uwtable
define internal i64 @qio_channel_tls_writev(ptr noundef %ioc, ptr noundef %iov, i64 noundef %niov, ptr noundef %fds, i64 noundef %nfds, i32 noundef %flags, ptr noundef %errp) #0 {
entry:
  %retval = alloca i64, align 8
  %ioc.addr = alloca ptr, align 8
  %iov.addr = alloca ptr, align 8
  %niov.addr = alloca i64, align 8
  %fds.addr = alloca ptr, align 8
  %nfds.addr = alloca i64, align 8
  %flags.addr = alloca i32, align 4
  %errp.addr = alloca ptr, align 8
  %tioc = alloca ptr, align 8
  %i = alloca i64, align 8
  %done = alloca i64, align 8
  %ret = alloca i64, align 8
  store ptr %ioc, ptr %ioc.addr, align 8
  store ptr %iov, ptr %iov.addr, align 8
  store i64 %niov, ptr %niov.addr, align 8
  store ptr %fds, ptr %fds.addr, align 8
  store i64 %nfds, ptr %nfds.addr, align 8
  store i32 %flags, ptr %flags.addr, align 4
  store ptr %errp, ptr %errp.addr, align 8
  %0 = load ptr, ptr %ioc.addr, align 8
  %call = call ptr @QIO_CHANNEL_TLS(ptr noundef %0)
  store ptr %call, ptr %tioc, align 8
  store i64 0, ptr %done, align 8
  store i64 0, ptr %i, align 8
  br label %for.cond

for.cond:                                         ; preds = %for.inc, %entry
  %1 = load i64, ptr %i, align 8
  %2 = load i64, ptr %niov.addr, align 8
  %cmp = icmp ult i64 %1, %2
  br i1 %cmp, label %for.body, label %for.end

for.body:                                         ; preds = %for.cond
  %3 = load ptr, ptr %tioc, align 8
  %session = getelementptr inbounds %struct.QIOChannelTLS, ptr %3, i32 0, i32 2
  %4 = load ptr, ptr %session, align 8
  %5 = load ptr, ptr %iov.addr, align 8
  %6 = load i64, ptr %i, align 8
  %arrayidx = getelementptr %struct.iovec, ptr %5, i64 %6
  %iov_base = getelementptr inbounds %struct.iovec, ptr %arrayidx, i32 0, i32 0
  %7 = load ptr, ptr %iov_base, align 8
  %8 = load ptr, ptr %iov.addr, align 8
  %9 = load i64, ptr %i, align 8
  %arrayidx1 = getelementptr %struct.iovec, ptr %8, i64 %9
  %iov_len = getelementptr inbounds %struct.iovec, ptr %arrayidx1, i32 0, i32 1
  %10 = load i64, ptr %iov_len, align 8
  %call2 = call i64 @qcrypto_tls_session_write(ptr noundef %4, ptr noundef %7, i64 noundef %10)
  store i64 %call2, ptr %ret, align 8
  %11 = load i64, ptr %ret, align 8
  %cmp3 = icmp sle i64 %11, 0
  br i1 %cmp3, label %if.then, label %if.end9

if.then:                                          ; preds = %for.body
  %call4 = call ptr @__errno_location() #6
  %12 = load i32, ptr %call4, align 4
  %cmp5 = icmp eq i32 %12, 11
  br i1 %cmp5, label %if.then6, label %if.end

if.then6:                                         ; preds = %if.then
  %13 = load i64, ptr %done, align 8
  %tobool = icmp ne i64 %13, 0
  br i1 %tobool, label %if.then7, label %if.else

if.then7:                                         ; preds = %if.then6
  %14 = load i64, ptr %done, align 8
  store i64 %14, ptr %retval, align 8
  br label %return

if.else:                                          ; preds = %if.then6
  store i64 -2, ptr %retval, align 8
  br label %return

if.end:                                           ; preds = %if.then
  %15 = load ptr, ptr %errp.addr, align 8
  %call8 = call ptr @__errno_location() #6
  %16 = load i32, ptr %call8, align 4
  call void (ptr, ptr, i32, ptr, i32, ptr, ...) @error_setg_errno_internal(ptr noundef %15, ptr noundef @.str.20, i32 noundef 331, ptr noundef @__func__.qio_channel_tls_writev, i32 noundef %16, ptr noundef @.str.21)
  store i64 -1, ptr %retval, align 8
  br label %return

if.end9:                                          ; preds = %for.body
  %17 = load i64, ptr %ret, align 8
  %18 = load i64, ptr %done, align 8
  %add = add i64 %18, %17
  store i64 %add, ptr %done, align 8
  %19 = load i64, ptr %ret, align 8
  %20 = load ptr, ptr %iov.addr, align 8
  %21 = load i64, ptr %i, align 8
  %arrayidx10 = getelementptr %struct.iovec, ptr %20, i64 %21
  %iov_len11 = getelementptr inbounds %struct.iovec, ptr %arrayidx10, i32 0, i32 1
  %22 = load i64, ptr %iov_len11, align 8
  %cmp12 = icmp ult i64 %19, %22
  br i1 %cmp12, label %if.then13, label %if.end14

if.then13:                                        ; preds = %if.end9
  br label %for.end

if.end14:                                         ; preds = %if.end9
  br label %for.inc

for.inc:                                          ; preds = %if.end14
  %23 = load i64, ptr %i, align 8
  %inc = add i64 %23, 1
  store i64 %inc, ptr %i, align 8
  br label %for.cond, !llvm.loop !5

for.end:                                          ; preds = %if.then13, %for.cond
  %24 = load i64, ptr %done, align 8
  store i64 %24, ptr %retval, align 8
  br label %return

return:                                           ; preds = %for.end, %if.end, %if.else, %if.then7
  %25 = load i64, ptr %retval, align 8
  ret i64 %25
}