; Function Attrs: nounwind sspstrong uwtable
define internal i64 @qio_channel_tls_writev(ptr noundef %ioc, ptr noundef readonly captures(none) %iov, i64 noundef %niov, ptr readnone captures(none) %fds, i64 %nfds, i32 %flags, ptr noundef %errp) #0 {
entry:
  %call.i = tail call ptr @object_dynamic_cast_assert(ptr noundef %ioc, ptr noundef nonnull @.str, ptr noundef nonnull @.str.1, i32 noundef 30, ptr noundef nonnull @__func__.QIO_CHANNEL_TLS) #8
  %cmp13.not = icmp eq i64 %niov, 0
  br i1 %cmp13.not, label %return, label %for.body.lr.ph

for.body.lr.ph:                                   ; preds = %entry
  %session = getelementptr inbounds nuw i8, ptr %call.i, i64 104
  br label %for.body

for.body:                                         ; preds = %if.end9, %for.body.lr.ph
  %done.015 = phi i64 [ 0, %for.body.lr.ph ], [ %add, %if.end9 ]
  %i.014 = phi i64 [ 0, %for.body.lr.ph ], [ %inc, %if.end9 ]
  %0 = load ptr, ptr %session, align 8
  %arrayidx = getelementptr %struct.iovec, ptr %iov, i64 %i.014
  %1 = load ptr, ptr %arrayidx, align 8
  %iov_len = getelementptr inbounds nuw i8, ptr %arrayidx, i64 8
  %2 = load i64, ptr %iov_len, align 8
  %call2 = tail call i64 @qcrypto_tls_session_write(ptr noundef %0, ptr noundef %1, i64 noundef %2) #8
  %cmp3 = icmp slt i64 %call2, 1
  br i1 %cmp3, label %if.then, label %if.end9

if.then:                                          ; preds = %for.body
  %call4 = tail call ptr @__errno_location() #9
  %3 = load i32, ptr %call4, align 4
  %cmp5 = icmp eq i32 %3, 11
  br i1 %cmp5, label %if.then6, label %if.end

if.then6:                                         ; preds = %if.then
  %tobool.not = icmp eq i64 %done.015, 0
  %.done.0 = select i1 %tobool.not, i64 -2, i64 %done.015
  br label %return

if.end:                                           ; preds = %if.then
  tail call void (ptr, ptr, i32, ptr, i32, ptr, ...) @error_setg_errno_internal(ptr noundef %errp, ptr noundef nonnull @.str.20, i32 noundef 331, ptr noundef nonnull @__func__.qio_channel_tls_writev, i32 noundef %3, ptr noundef nonnull @.str.21) #8
  br label %return

if.end9:                                          ; preds = %for.body
  %add = add i64 %call2, %done.015
  %4 = load i64, ptr %iov_len, align 8
  %cmp12 = icmp ult i64 %call2, %4
  %inc = add nuw i64 %i.014, 1
  %exitcond.not = icmp eq i64 %inc, %niov
  %or.cond = select i1 %cmp12, i1 true, i1 %exitcond.not
  br i1 %or.cond, label %return, label %for.body, !llvm.loop !5

return:                                           ; preds = %if.end9, %entry, %if.then6, %if.end
  %retval.0 = phi i64 [ -1, %if.end ], [ %.done.0, %if.then6 ], [ 0, %entry ], [ %add, %if.end9 ]
  ret i64 %retval.0
}